target datalayout = "e-m:e-p270:32:32-p271:32:32-p272:64:64-i64:64-i128:128-f80:128-n8:16:32:64-S128"
target triple = "x86_64-pc-linux-gnu"

%struct.expert_field = type { i32, i32 }
%struct._ntlmssp_blob = type { i16, ptr }

@hf_ntlmssp_ntlm_client_challenge = internal global i32 0, align 4
@hf_ntlmssp_auth_lmresponse = internal global i32 0, align 4
@hf_ntlmssp_auth_ntresponse = internal global i32 0, align 4
@hf_ntlmssp_blob_len = internal global i32 0, align 4
@hf_ntlmssp_blob_maxlen = internal global i32 0, align 4
@hf_ntlmssp_blob_offset = internal global i32 0, align 4
@ett_ntlmssp_blob = internal global i32 0, align 4
@ei_ntlmssp_v2_key_too_long = internal global %struct.expert_field zeroinitializer, align 4
@.str.300 = private unnamed_addr constant [6 x i8] c"Empty\00", align 1
@.str.301 = private unnamed_addr constant [56 x i8] c"NTLM v2 key is %d bytes long, too big for our %d buffer\00", align 1
@.str.302 = private unnamed_addr constant [17 x i8] zeroinitializer, align 1

; Function Attrs: null_pointer_is_valid sspstrong uwtable
define internal i32 @dissect_ntlmssp_blob(ptr noundef %0, ptr noundef %1, ptr noundef %2, i32 noundef %3, i32 noundef %4, ptr noundef %5, ptr noundef %6) #0 {
  %8 = alloca i32, align 4
  %9 = alloca ptr, align 8
  %10 = alloca ptr, align 8
  %11 = alloca ptr, align 8
  %12 = alloca i32, align 4
  %13 = alloca i32, align 4
  %14 = alloca ptr, align 8
  %15 = alloca ptr, align 8
  %16 = alloca ptr, align 8
  %17 = alloca ptr, align 8
  %18 = alloca i16, align 2
  %19 = alloca i16, align 2
  %20 = alloca i32, align 4
  %21 = alloca i32, align 4
  store ptr %0, ptr %9, align 8
  store ptr %1, ptr %10, align 8
  store ptr %2, ptr %11, align 8
  store i32 %3, ptr %12, align 4
  store i32 %4, ptr %13, align 4
  store ptr %5, ptr %14, align 8
  store ptr %6, ptr %15, align 8
  call void @llvm.lifetime.start.p0(i64 8, ptr %16) #17
  store ptr null, ptr %16, align 8
  call void @llvm.lifetime.start.p0(i64 8, ptr %17) #17
  store ptr null, ptr %17, align 8
  call void @llvm.lifetime.start.p0(i64 2, ptr %18) #17
  %22 = load ptr, ptr %9, align 8
  %23 = load i32, ptr %12, align 4
  %24 = call zeroext i16 @tvb_get_letohs(ptr noundef %22, i32 noundef %23)
  store i16 %24, ptr %18, align 2
  call void @llvm.lifetime.start.p0(i64 2, ptr %19) #17
  %25 = load ptr, ptr %9, align 8
  %26 = load i32, ptr %12, align 4
  %27 = add i32 %26, 2
  %28 = call zeroext i16 @tvb_get_letohs(ptr noundef %25, i32 noundef %27)
  store i16 %28, ptr %19, align 2
  call void @llvm.lifetime.start.p0(i64 4, ptr %20) #17
  %29 = load ptr, ptr %9, align 8
  %30 = load i32, ptr %12, align 4
  %31 = add i32 %30, 4
  %32 = call i32 @tvb_get_letohl(ptr noundef %29, i32 noundef %31)
  store i32 %32, ptr %20, align 4
  %33 = load i16, ptr %18, align 2
  %34 = zext i16 %33 to i32
  %35 = icmp eq i32 0, %34
  br i1 %35, label %36, label %60

36:                                               ; preds = %7
  %37 = load i32, ptr %20, align 4
  %38 = load i32, ptr %12, align 4
  %39 = add i32 %38, 8
  %40 = icmp ugt i32 %37, %39
  br i1 %40, label %41, label %43

41:                                               ; preds = %36
  %42 = load i32, ptr %20, align 4
  br label %46

43:                                               ; preds = %36
  %44 = load i32, ptr %12, align 4
  %45 = add i32 %44, 8
  br label %46

46:                                               ; preds = %43, %41
  %47 = phi i32 [ %42, %41 ], [ %45, %43 ]
  %48 = load ptr, ptr %14, align 8
  store i32 %47, ptr %48, align 4
  %49 = load ptr, ptr %11, align 8
  %50 = load i32, ptr %13, align 4
  %51 = load ptr, ptr %9, align 8
  %52 = load i32, ptr %12, align 4
  %53 = call ptr (ptr, i32, ptr, i32, i32, ptr, ptr, ...) @proto_tree_add_bytes_format_value(ptr noundef %49, i32 noundef %50, ptr noundef %51, i32 noundef %52, i32 noundef 8, ptr noundef null, ptr noundef @.str.300)
  %54 = load ptr, ptr %15, align 8
  %55 = getelementptr inbounds nuw %struct._ntlmssp_blob, ptr %54, i32 0, i32 0
  store i16 0, ptr %55, align 8
  %56 = load ptr, ptr %15, align 8
  %57 = getelementptr inbounds nuw %struct._ntlmssp_blob, ptr %56, i32 0, i32 1
  store ptr null, ptr %57, align 8
  %58 = load i32, ptr %12, align 4
  %59 = add i32 %58, 8
  store i32 %59, ptr %8, align 4
  store i32 1, ptr %21, align 4
  br label %168

60:                                               ; preds = %7
  %61 = load ptr, ptr %11, align 8
  %62 = icmp ne ptr %61, null
  br i1 %62, label %63, label %74

63:                                               ; preds = %60
  %64 = load ptr, ptr %11, align 8
  %65 = load i32, ptr %13, align 4
  %66 = load ptr, ptr %9, align 8
  %67 = load i32, ptr %20, align 4
  %68 = load i16, ptr %18, align 2
  %69 = zext i16 %68 to i32
  %70 = call ptr @proto_tree_add_item(ptr noundef %64, i32 noundef %65, ptr noundef %66, i32 noundef %67, i32 noundef %69, i32 noundef 0)
  store ptr %70, ptr %16, align 8
  %71 = load ptr, ptr %16, align 8
  %72 = load i32, ptr @ett_ntlmssp_blob, align 4
  %73 = call ptr @proto_item_add_subtree(ptr noundef %71, i32 noundef %72)
  store ptr %73, ptr %17, align 8
  br label %74

74:                                               ; preds = %63, %60
  %75 = load ptr, ptr %17, align 8
  %76 = load i32, ptr @hf_ntlmssp_blob_len, align 4
  %77 = load ptr, ptr %9, align 8
  %78 = load i32, ptr %12, align 4
  %79 = load i16, ptr %18, align 2
  %80 = zext i16 %79 to i32
  %81 = call ptr @proto_tree_add_uint(ptr noundef %75, i32 noundef %76, ptr noundef %77, i32 noundef %78, i32 noundef 2, i32 noundef %80)
  %82 = load i32, ptr %12, align 4
  %83 = add i32 %82, 2
  store i32 %83, ptr %12, align 4
  %84 = load ptr, ptr %17, align 8
  %85 = load i32, ptr @hf_ntlmssp_blob_maxlen, align 4
  %86 = load ptr, ptr %9, align 8
  %87 = load i32, ptr %12, align 4
  %88 = load i16, ptr %19, align 2
  %89 = zext i16 %88 to i32
  %90 = call ptr @proto_tree_add_uint(ptr noundef %84, i32 noundef %85, ptr noundef %86, i32 noundef %87, i32 noundef 2, i32 noundef %89)
  %91 = load i32, ptr %12, align 4
  %92 = add i32 %91, 2
  store i32 %92, ptr %12, align 4
  %93 = load ptr, ptr %17, align 8
  %94 = load i32, ptr @hf_ntlmssp_blob_offset, align 4
  %95 = load ptr, ptr %9, align 8
  %96 = load i32, ptr %12, align 4
  %97 = load i32, ptr %20, align 4
  %98 = call ptr @proto_tree_add_uint(ptr noundef %93, i32 noundef %94, ptr noundef %95, i32 noundef %96, i32 noundef 4, i32 noundef %97)
  %99 = load i32, ptr %12, align 4
  %100 = add i32 %99, 4
  store i32 %100, ptr %12, align 4
  %101 = load i32, ptr %20, align 4
  %102 = load i16, ptr %18, align 2
  %103 = zext i16 %102 to i32
  %104 = add i32 %101, %103
  %105 = load ptr, ptr %14, align 8
  store i32 %104, ptr %105, align 4
  %106 = load i16, ptr %18, align 2
  %107 = zext i16 %106 to i32
  %108 = icmp slt i32 %107, 10240
  br i1 %108, label %109, label %121

109:                                              ; preds = %74
  %110 = load i16, ptr %18, align 2
  %111 = load ptr, ptr %15, align 8
  %112 = getelementptr inbounds nuw %struct._ntlmssp_blob, ptr %111, i32 0, i32 0
  store i16 %110, ptr %112, align 8
  %113 = call ptr @wmem_file_scope()
  %114 = load ptr, ptr %9, align 8
  %115 = load i32, ptr %20, align 4
  %116 = load i16, ptr %18, align 2
  %117 = zext i16 %116 to i64
  %118 = call ptr @tvb_memdup(ptr noundef %113, ptr noundef %114, i32 noundef %115, i64 noundef %117)
  %119 = load ptr, ptr %15, align 8
  %120 = getelementptr inbounds nuw %struct._ntlmssp_blob, ptr %119, i32 0, i32 1
  store ptr %118, ptr %120, align 8
  br label %131

121:                                              ; preds = %74
  %122 = load ptr, ptr %10, align 8
  %123 = load ptr, ptr %16, align 8
  %124 = load i16, ptr %18, align 2
  %125 = zext i16 %124 to i32
  %126 = call ptr (ptr, ptr, ptr, ptr, ...) @expert_add_info_format(ptr noundef %122, ptr noundef %123, ptr noundef @ei_ntlmssp_v2_key_too_long, ptr noundef @.str.301, i32 noundef %125, i32 noundef 10240)
  %127 = load ptr, ptr %15, align 8
  %128 = getelementptr inbounds nuw %struct._ntlmssp_blob, ptr %127, i32 0, i32 0
  store i16 0, ptr %128, align 8
  %129 = load ptr, ptr %15, align 8
  %130 = getelementptr inbounds nuw %struct._ntlmssp_blob, ptr %129, i32 0, i32 1
  store ptr null, ptr %130, align 8
  br label %131

131:                                              ; preds = %121, %109
  %132 = load i32, ptr %13, align 4
  %133 = load i32, ptr @hf_ntlmssp_auth_lmresponse, align 4
  %134 = icmp eq i32 %132, %133
  br i1 %134, label %135, label %148

135:                                              ; preds = %131
  %136 = load ptr, ptr %9, align 8
  %137 = load i32, ptr %20, align 4
  %138 = add i32 %137, 8
  %139 = call i32 @tvb_memeql(ptr noundef %136, i32 noundef %138, ptr noundef @.str.302, i64 noundef 16)
  %140 = icmp eq i32 %139, 0
  br i1 %140, label %141, label %147

141:                                              ; preds = %135
  %142 = load ptr, ptr %11, align 8
  %143 = load i32, ptr @hf_ntlmssp_ntlm_client_challenge, align 4
  %144 = load ptr, ptr %9, align 8
  %145 = load i32, ptr %20, align 4
  %146 = call ptr @proto_tree_add_item(ptr noundef %142, i32 noundef %143, ptr noundef %144, i32 noundef %145, i32 noundef 8, i32 noundef 0)
  br label %147

147:                                              ; preds = %141, %135
  br label %166

148:                                              ; preds = %131
  %149 = load i32, ptr %13, align 4
  %150 = load i32, ptr @hf_ntlmssp_auth_ntresponse, align 4
  %151 = icmp eq i32 %149, %150
  br i1 %151, label %152, label %165

152:                                              ; preds = %148
  %153 = load i16, ptr %18, align 2
  %154 = zext i16 %153 to i32
  %155 = icmp sgt i32 %154, 24
  br i1 %155, label %156, label %164

156:                                              ; preds = %152
  %157 = load ptr, ptr %9, align 8
  %158 = load ptr, ptr %10, align 8
  %159 = load ptr, ptr %17, align 8
  %160 = load i32, ptr %20, align 4
  %161 = load i16, ptr %18, align 2
  %162 = zext i16 %161 to i32
  %163 = call i32 @dissect_ntlmv2_response(ptr noundef %157, ptr noundef %158, ptr noundef %159, i32 noundef %160, i32 noundef %162)
  br label %164

164:                                              ; preds = %156, %152
  br label %165

165:                                              ; preds = %164, %148
  br label %166

166:                                              ; preds = %165, %147
  %167 = load i32, ptr %12, align 4
  store i32 %167, ptr %8, align 4
  store i32 1, ptr %21, align 4
  br label %168

168:                                              ; preds = %166, %46
  call void @llvm.lifetime.end.p0(i64 4, ptr %20) #17
  call void @llvm.lifetime.end.p0(i64 2, ptr %19) #17
  call void @llvm.lifetime.end.p0(i64 2, ptr %18) #17
  call void @llvm.lifetime.end.p0(i64 8, ptr %17) #17
  call void @llvm.lifetime.end.p0(i64 8, ptr %16) #17
  %169 = load i32, ptr %8, align 4
  ret i32 %169
}