; Function Attrs: null_pointer_is_valid sspstrong uwtable
define internal fastcc noundef i32 @dissect_ntlmssp_blob(ptr noundef %0, ptr noundef %1, ptr noundef %2, i32 noundef %3, i32 noundef %4, ptr noundef writeonly captures(none) initializes((0, 4)) %5, ptr noundef writeonly captures(none) initializes((0, 2), (8, 16)) %6) unnamed_addr #0 {
  %8 = tail call zeroext i16 @tvb_get_letohs(ptr noundef %0, i32 noundef %3)
  %9 = add i32 %3, 2
  %10 = tail call zeroext i16 @tvb_get_letohs(ptr noundef %0, i32 noundef %9)
  %11 = add i32 %3, 4
  %12 = tail call i32 @tvb_get_letohl(ptr noundef %0, i32 noundef %11)
  %13 = zext i16 %8 to i32
  %14 = icmp eq i16 %8, 0
  br i1 %14, label %15, label %20

15:                                               ; preds = %7
  %16 = add i32 %3, 8
  %17 = tail call i32 @llvm.umax.i32(i32 %12, i32 %16)
  store i32 %17, ptr %5, align 4
  %18 = tail call ptr (ptr, i32, ptr, i32, i32, ptr, ptr, ...) @proto_tree_add_bytes_format_value(ptr noundef %2, i32 noundef %4, ptr noundef %0, i32 noundef %3, i32 noundef 8, ptr noundef null, ptr noundef nonnull @.str.300)
  store i16 0, ptr %6, align 8
  %19 = getelementptr inbounds nuw i8, ptr %6, i64 8
  store ptr null, ptr %19, align 8
  br label %59

20:                                               ; preds = %7
  %.not = icmp eq ptr %2, null
  br i1 %.not, label %25, label %21

21:                                               ; preds = %20
  %22 = tail call ptr @proto_tree_add_item(ptr noundef nonnull %2, i32 noundef %4, ptr noundef %0, i32 noundef %12, i32 noundef %13, i32 noundef 0)
  %23 = load i32, ptr @ett_ntlmssp_blob, align 4
  %24 = tail call ptr @proto_item_add_subtree(ptr noundef %22, i32 noundef %23)
  br label %25

25:                                               ; preds = %21, %20
  %.073 = phi ptr [ %24, %21 ], [ null, %20 ]
  %.072 = phi ptr [ %22, %21 ], [ null, %20 ]
  %26 = load i32, ptr @hf_ntlmssp_blob_len, align 4
  %27 = tail call ptr @proto_tree_add_uint(ptr noundef %.073, i32 noundef %26, ptr noundef %0, i32 noundef %3, i32 noundef 2, i32 noundef %13)
  %28 = load i32, ptr @hf_ntlmssp_blob_maxlen, align 4
  %29 = zext i16 %10 to i32
  %30 = tail call ptr @proto_tree_add_uint(ptr noundef %.073, i32 noundef %28, ptr noundef %0, i32 noundef %9, i32 noundef 2, i32 noundef %29)
  %31 = load i32, ptr @hf_ntlmssp_blob_offset, align 4
  %32 = tail call ptr @proto_tree_add_uint(ptr noundef %.073, i32 noundef %31, ptr noundef %0, i32 noundef %11, i32 noundef 4, i32 noundef %12)
  %33 = add i32 %3, 8
  %34 = add i32 %12, %13
  store i32 %34, ptr %5, align 4
  %35 = icmp ult i16 %8, 10240
  br i1 %35, label %36, label %40

36:                                               ; preds = %25
  store i16 %8, ptr %6, align 8
  %37 = tail call ptr @wmem_file_scope()
  %38 = zext nneg i16 %8 to i64
  %39 = tail call ptr @tvb_memdup(ptr noundef %37, ptr noundef %0, i32 noundef %12, i64 noundef %38)
  br label %42

40:                                               ; preds = %25
  %41 = tail call ptr (ptr, ptr, ptr, ptr, ...) @expert_add_info_format(ptr noundef %1, ptr noundef %.072, ptr noundef nonnull @ei_ntlmssp_v2_key_too_long, ptr noundef nonnull @.str.301, i32 noundef %13, i32 noundef 10240)
  store i16 0, ptr %6, align 8
  br label %42

42:                                               ; preds = %40, %36
  %.sink = phi ptr [ %39, %36 ], [ null, %40 ]
  %43 = getelementptr inbounds nuw i8, ptr %6, i64 8
  store ptr %.sink, ptr %43, align 8
  %44 = load i32, ptr @hf_ntlmssp_auth_lmresponse, align 4
  %45 = icmp eq i32 %4, %44
  br i1 %45, label %46, label %53

46:                                               ; preds = %42
  %47 = add i32 %12, 8
  %48 = tail call i32 @tvb_memeql(ptr noundef %0, i32 noundef %47, ptr noundef nonnull @.str.302, i64 noundef 16)
  %49 = icmp eq i32 %48, 0
  br i1 %49, label %50, label %59

50:                                               ; preds = %46
  %51 = load i32, ptr @hf_ntlmssp_ntlm_client_challenge, align 4
  %52 = tail call ptr @proto_tree_add_item(ptr noundef %2, i32 noundef %51, ptr noundef %0, i32 noundef %12, i32 noundef 8, i32 noundef 0)
  br label %59

53:                                               ; preds = %42
  %54 = load i32, ptr @hf_ntlmssp_auth_ntresponse, align 4
  %55 = icmp eq i32 %4, %54
  %56 = icmp ugt i16 %8, 24
  %or.cond = select i1 %55, i1 %56, i1 false
  br i1 %or.cond, label %57, label %59

57:                                               ; preds = %53
  %58 = tail call i32 @dissect_ntlmv2_response(ptr noundef %0, ptr noundef %1, ptr noundef %.073, i32 noundef %12, i32 noundef %13)
  br label %59

59:                                               ; preds = %50, %46, %57, %53, %15
  %.0 = phi i32 [ %16, %15 ], [ %33, %53 ], [ %33, %57 ], [ %33, %46 ], [ %33, %50 ]
  ret i32 %.0
}